; Function Attrs: mustprogress uwtable
define void @_ZNK18ColoringRulesModel5indexEiiRK11QModelIndex(ptr dead_on_unwind noalias nocapture writable writeonly sret(%class.QModelIndex) align 8 %0, ptr noundef nonnull align 8 dereferenceable(88) %1, i32 noundef %2, i32 noundef %3, ptr noundef nonnull align 8 dereferenceable(24) %4) unnamed_addr #4 align 2 personality ptr @__gxx_personality_v0 {
  %6 = alloca %class.QVariant, align 8
  %7 = alloca %class.QVariant, align 8
  %8 = tail call noundef zeroext i1 @_ZNK18QAbstractItemModel8hasIndexEiiRK11QModelIndex(ptr noundef nonnull align 8 dereferenceable(16) %1, i32 noundef %2, i32 noundef %3, ptr noundef nonnull align 8 dereferenceable(24) %4)
  br i1 %8, label %12, label %9

9:                                                ; preds = %5
  store i32 -1, ptr %0, align 8
  %10 = getelementptr inbounds i8, ptr %0, i64 4
  store i32 -1, ptr %10, align 4
  %11 = getelementptr inbounds i8, ptr %0, i64 8
  tail call void @llvm.memset.p0.i64(ptr noundef nonnull align 8 dereferenceable(16) %11, i8 0, i64 16, i1 false)
  br label %46

12:                                               ; preds = %5
  %13 = load i32, ptr %4, align 8
  %14 = icmp sgt i32 %13, -1
  %15 = getelementptr inbounds i8, ptr %4, i64 4
  %16 = load i32, ptr %15, align 4
  %17 = icmp sgt i32 %16, -1
  %or.cond.i = select i1 %14, i1 %17, i1 false
  %18 = getelementptr inbounds i8, ptr %4, i64 16
  %19 = load ptr, ptr %18, align 8
  %20 = icmp ne ptr %19, null
  %or.cond = select i1 %or.cond.i, i1 %20, i1 false
  %21 = getelementptr inbounds i8, ptr %4, i64 8
  %22 = load i64, ptr %21, align 8
  %23 = inttoptr i64 %22 to ptr
  %24 = getelementptr inbounds i8, ptr %1, i64 16
  %25 = load ptr, ptr %24, align 8
  %.0 = select i1 %or.cond, ptr %23, ptr %25
  call void @llvm.lifetime.start.p0(i64 32, ptr nonnull %7)
  %26 = sext i32 %2 to i64
  call void @llvm.lifetime.start.p0(i64 32, ptr nonnull %6)
  call void @llvm.memset.p0.i64(ptr noundef nonnull align 8 dereferenceable(24) %6, i8 0, i64 24, i1 false), !noalias !67
  %27 = getelementptr inbounds i8, ptr %6, i64 24
  store i64 2, ptr %27, align 8, !noalias !67
  %28 = getelementptr inbounds i8, ptr %.0, i64 32
  %29 = load i64, ptr %28, align 8, !noalias !70
  %30 = icmp ugt i64 %29, %26
  %31 = getelementptr inbounds i8, ptr %.0, i64 24
  %32 = load ptr, ptr %31, align 8, !noalias !70
  %33 = getelementptr %class.QVariant, ptr %32, i64 %26
  %34 = select i1 %30, ptr %33, ptr %6
  invoke void @_ZN8QVariantC1ERKS_(ptr noundef nonnull align 8 dereferenceable(32) %7, ptr noundef nonnull align 8 dereferenceable(32) %34)
          to label %_ZNK5QListI8QVariantE5valueEx.exit.i unwind label %35

common.resume.i:                                  ; preds = %38, %35
  %.sink.i = phi ptr [ %7, %38 ], [ %6, %35 ]
  %common.resume.op.i = phi { ptr, i32 } [ %39, %38 ], [ %36, %35 ]
  call void @_ZN8QVariantD1Ev(ptr noundef nonnull align 8 dereferenceable(32) %.sink.i) #18
  resume { ptr, i32 } %common.resume.op.i

35:                                               ; preds = %12
  %36 = landingpad { ptr, i32 }
          cleanup
  br label %common.resume.i

_ZNK5QListI8QVariantE5valueEx.exit.i:             ; preds = %12
  call void @_ZN8QVariantD1Ev(ptr noundef nonnull align 8 dereferenceable(32) %6) #18
  call void @llvm.lifetime.end.p0(i64 32, ptr nonnull %6)
  %37 = invoke noundef ptr @_Z13qvariant_castIPvET_RK8QVariant(ptr noundef nonnull align 8 dereferenceable(32) %7)
          to label %_ZN19ModelHelperTreeItemI16ColoringRuleItemE5childEi.exit unwind label %38

38:                                               ; preds = %_ZNK5QListI8QVariantE5valueEx.exit.i
  %39 = landingpad { ptr, i32 }
          cleanup
  br label %common.resume.i

_ZN19ModelHelperTreeItemI16ColoringRuleItemE5childEi.exit: ; preds = %_ZNK5QListI8QVariantE5valueEx.exit.i
  call void @_ZN8QVariantD1Ev(ptr noundef nonnull align 8 dereferenceable(32) %7) #18
  call void @llvm.lifetime.end.p0(i64 32, ptr nonnull %7)
  %.not = icmp eq ptr %37, null
  %40 = getelementptr inbounds i8, ptr %0, i64 4
  %41 = getelementptr inbounds i8, ptr %0, i64 8
  br i1 %.not, label %45, label %42

42:                                               ; preds = %_ZN19ModelHelperTreeItemI16ColoringRuleItemE5childEi.exit
  store i32 %2, ptr %0, align 8, !alias.scope !73
  store i32 %3, ptr %40, align 4, !alias.scope !73
  %43 = ptrtoint ptr %37 to i64
  store i64 %43, ptr %41, align 8, !alias.scope !73
  %44 = getelementptr inbounds i8, ptr %0, i64 16
  store ptr %1, ptr %44, align 8, !alias.scope !73
  br label %46

45:                                               ; preds = %_ZN19ModelHelperTreeItemI16ColoringRuleItemE5childEi.exit
  store i32 -1, ptr %0, align 8
  store i32 -1, ptr %40, align 4
  call void @llvm.memset.p0.i64(ptr noundef nonnull align 8 dereferenceable(16) %41, i8 0, i64 16, i1 false)
  br label %46

46:                                               ; preds = %45, %42, %9
  ret void
}